target datalayout = "e-m:e-p270:32:32-p271:32:32-p272:64:64-i64:64-i128:128-f80:128-n8:16:32:64-S128"
target triple = "x86_64-pc-linux-gnu"

%struct.Fraig_ManStruct_t_ = type { ptr, ptr, ptr, ptr, ptr, ptr, ptr, ptr, ptr, i32, i32, i32, i32, i32, i32, i32, i32, i32, i32, i32, i32, i64, i32, i32, i32, i32, i32, ptr, ptr, ptr, ptr, ptr, i32, ptr, ptr, ptr, ptr, ptr, ptr, i32, ptr, ptr, ptr, ptr, i32, i32, i32, i32, i32, i32, i32, i32, i32, i32, i32, i32, i32, i32, i32, i32, i32, i32, i32, i64, i64, i64, i64, i64, i64, i64, i64, i64, i64, i64, i64 }
%struct.Fraig_NodeVecStruct_t_ = type { i32, i32, ptr }
%struct.Fraig_NodeStruct_t_ = type { i32, i32, i32, i32, i32, i32, i32, ptr, ptr, ptr, ptr, ptr, ptr, ptr, ptr, i32, i32, ptr, ptr, ptr, ptr, ptr, ptr, ptr }

; Function Attrs: nounwind uwtable
define i32 @Fraig_GetMaxLevel(ptr noundef %0) #0 {
  %2 = alloca ptr, align 8
  %3 = alloca i32, align 4
  %4 = alloca i32, align 4
  store ptr %0, ptr %2, align 8
  store i32 0, ptr %3, align 4
  store i32 0, ptr %4, align 4
  br label %5

5:                                                ; preds = %49, %1
  %6 = load i32, ptr %4, align 4
  %7 = load ptr, ptr %2, align 8
  %8 = getelementptr inbounds %struct.Fraig_ManStruct_t_, ptr %7, i32 0, i32 2
  %9 = load ptr, ptr %8, align 8
  %10 = getelementptr inbounds %struct.Fraig_NodeVecStruct_t_, ptr %9, i32 0, i32 1
  %11 = load i32, ptr %10, align 4
  %12 = icmp slt i32 %6, %11
  br i1 %12, label %13, label %52

13:                                               ; preds = %5
  %14 = load i32, ptr %3, align 4
  %15 = load ptr, ptr %2, align 8
  %16 = getelementptr inbounds %struct.Fraig_ManStruct_t_, ptr %15, i32 0, i32 2
  %17 = load ptr, ptr %16, align 8
  %18 = getelementptr inbounds %struct.Fraig_NodeVecStruct_t_, ptr %17, i32 0, i32 2
  %19 = load ptr, ptr %18, align 8
  %20 = load i32, ptr %4, align 4
  %21 = sext i32 %20 to i64
  %22 = getelementptr inbounds ptr, ptr %19, i64 %21
  %23 = load ptr, ptr %22, align 8
  %24 = ptrtoint ptr %23 to i64
  %25 = and i64 %24, -2
  %26 = inttoptr i64 %25 to ptr
  %27 = getelementptr inbounds %struct.Fraig_NodeStruct_t_, ptr %26, i32 0, i32 2
  %28 = load i32, ptr %27, align 8
  %29 = icmp sgt i32 %14, %28
  br i1 %29, label %30, label %32

30:                                               ; preds = %13
  %31 = load i32, ptr %3, align 4
  br label %47

32:                                               ; preds = %13
  %33 = load ptr, ptr %2, align 8
  %34 = getelementptr inbounds %struct.Fraig_ManStruct_t_, ptr %33, i32 0, i32 2
  %35 = load ptr, ptr %34, align 8
  %36 = getelementptr inbounds %struct.Fraig_NodeVecStruct_t_, ptr %35, i32 0, i32 2
  %37 = load ptr, ptr %36, align 8
  %38 = load i32, ptr %4, align 4
  %39 = sext i32 %38 to i64
  %40 = getelementptr inbounds ptr, ptr %37, i64 %39
  %41 = load ptr, ptr %40, align 8
  %42 = ptrtoint ptr %41 to i64
  %43 = and i64 %42, -2
  %44 = inttoptr i64 %43 to ptr
  %45 = getelementptr inbounds %struct.Fraig_NodeStruct_t_, ptr %44, i32 0, i32 2
  %46 = load i32, ptr %45, align 8
  br label %47

47:                                               ; preds = %32, %30
  %48 = phi i32 [ %31, %30 ], [ %46, %32 ]
  store i32 %48, ptr %3, align 4
  br label %49

49:                                               ; preds = %47
  %50 = load i32, ptr %4, align 4
  %51 = add nsw i32 %50, 1
  store i32 %51, ptr %4, align 4
  br label %5, !llvm.loop !14

52:                                               ; preds = %5
  %53 = load i32, ptr %3, align 4
  ret i32 %53
}